target datalayout = "e-m:e-p270:32:32-p271:32:32-p272:64:64-i64:64-i128:128-f80:128-n8:16:32:64-S128"
target triple = "x86_64-pc-linux-gnu"

@history_len = internal global i32 0, align 4
@history = internal global ptr null, align 8
@history_max_len = internal global i32 100, align 4
@history_sensitive = internal global ptr null, align 8

; Function Attrs: nounwind uwtable
define dso_local i32 @linenoiseHistoryAdd(ptr noundef %0, i32 noundef %1) #0 {
  %3 = alloca i32, align 4
  %4 = alloca ptr, align 8
  %5 = alloca i32, align 4
  %6 = alloca ptr, align 8
  %7 = alloca i32, align 4
  store ptr %0, ptr %4, align 8, !tbaa !12
  store i32 %1, ptr %5, align 4, !tbaa !4
  call void @llvm.lifetime.start.p0(i64 8, ptr %6) #12
  %8 = load i32, ptr @history_max_len, align 4, !tbaa !4
  %9 = icmp eq i32 %8, 0
  br i1 %9, label %10, label %11

10:                                               ; preds = %2
  store i32 0, ptr %3, align 4
  store i32 1, ptr %7, align 4
  br label %97

11:                                               ; preds = %2
  %12 = load ptr, ptr @history, align 8, !tbaa !20
  %13 = icmp eq ptr %12, null
  br i1 %13, label %14, label %40

14:                                               ; preds = %11
  %15 = load i32, ptr @history_max_len, align 4, !tbaa !4
  %16 = sext i32 %15 to i64
  %17 = mul i64 8, %16
  %18 = call noalias ptr @malloc(i64 noundef %17) #14
  store ptr %18, ptr @history, align 8, !tbaa !20
  %19 = load ptr, ptr @history, align 8, !tbaa !20
  %20 = icmp eq ptr %19, null
  br i1 %20, label %21, label %22

21:                                               ; preds = %14
  store i32 0, ptr %3, align 4
  store i32 1, ptr %7, align 4
  br label %97

22:                                               ; preds = %14
  %23 = load i32, ptr @history_max_len, align 4, !tbaa !4
  %24 = sext i32 %23 to i64
  %25 = mul i64 4, %24
  %26 = call noalias ptr @malloc(i64 noundef %25) #14
  store ptr %26, ptr @history_sensitive, align 8, !tbaa !55
  %27 = load ptr, ptr @history_sensitive, align 8, !tbaa !55
  %28 = icmp eq ptr %27, null
  br i1 %28, label %29, label %31

29:                                               ; preds = %22
  %30 = load ptr, ptr @history, align 8, !tbaa !20
  call void @free(ptr noundef %30) #12
  store ptr null, ptr @history, align 8, !tbaa !20
  store i32 0, ptr %3, align 4
  store i32 1, ptr %7, align 4
  br label %97

31:                                               ; preds = %22
  %32 = load ptr, ptr @history, align 8, !tbaa !20
  %33 = load i32, ptr @history_max_len, align 4, !tbaa !4
  %34 = sext i32 %33 to i64
  %35 = mul i64 8, %34
  call void @llvm.memset.p0.i64(ptr align 8 %32, i8 0, i64 %35, i1 false)
  %36 = load ptr, ptr @history_sensitive, align 8, !tbaa !55
  %37 = load i32, ptr @history_max_len, align 4, !tbaa !4
  %38 = sext i32 %37 to i64
  %39 = mul i64 4, %38
  call void @llvm.memset.p0.i64(ptr align 4 %36, i8 0, i64 %39, i1 false)
  br label %40

40:                                               ; preds = %31, %11
  %41 = load i32, ptr @history_len, align 4, !tbaa !4
  %42 = icmp ne i32 %41, 0
  br i1 %42, label %43, label %54

43:                                               ; preds = %40
  %44 = load ptr, ptr @history, align 8, !tbaa !20
  %45 = load i32, ptr @history_len, align 4, !tbaa !4
  %46 = sub nsw i32 %45, 1
  %47 = sext i32 %46 to i64
  %48 = getelementptr inbounds ptr, ptr %44, i64 %47
  %49 = load ptr, ptr %48, align 8, !tbaa !12
  %50 = load ptr, ptr %4, align 8, !tbaa !12
  %51 = call i32 @strcmp(ptr noundef %49, ptr noundef %50) #13
  %52 = icmp ne i32 %51, 0
  br i1 %52, label %54, label %53

53:                                               ; preds = %43
  store i32 0, ptr %3, align 4
  store i32 1, ptr %7, align 4
  br label %97

54:                                               ; preds = %43, %40
  %55 = load ptr, ptr %4, align 8, !tbaa !12
  %56 = call noalias ptr @strdup(ptr noundef %55) #12
  store ptr %56, ptr %6, align 8, !tbaa !12
  %57 = load ptr, ptr %6, align 8, !tbaa !12
  %58 = icmp ne ptr %57, null
  br i1 %58, label %60, label %59

59:                                               ; preds = %54
  store i32 0, ptr %3, align 4
  store i32 1, ptr %7, align 4
  br label %97

60:                                               ; preds = %54
  %61 = load i32, ptr @history_len, align 4, !tbaa !4
  %62 = load i32, ptr @history_max_len, align 4, !tbaa !4
  %63 = icmp eq i32 %61, %62
  br i1 %63, label %64, label %84

64:                                               ; preds = %60
  %65 = load ptr, ptr @history, align 8, !tbaa !20
  %66 = getelementptr inbounds ptr, ptr %65, i64 0
  %67 = load ptr, ptr %66, align 8, !tbaa !12
  call void @free(ptr noundef %67) #12
  %68 = load ptr, ptr @history, align 8, !tbaa !20
  %69 = load ptr, ptr @history, align 8, !tbaa !20
  %70 = getelementptr inbounds ptr, ptr %69, i64 1
  %71 = load i32, ptr @history_max_len, align 4, !tbaa !4
  %72 = sub nsw i32 %71, 1
  %73 = sext i32 %72 to i64
  %74 = mul i64 8, %73
  call void @llvm.memmove.p0.p0.i64(ptr align 8 %68, ptr align 8 %70, i64 %74, i1 false)
  %75 = load ptr, ptr @history_sensitive, align 8, !tbaa !55
  %76 = load ptr, ptr @history_sensitive, align 8, !tbaa !55
  %77 = getelementptr inbounds i32, ptr %76, i64 1
  %78 = load i32, ptr @history_max_len, align 4, !tbaa !4
  %79 = sub nsw i32 %78, 1
  %80 = sext i32 %79 to i64
  %81 = mul i64 4, %80
  call void @llvm.memmove.p0.p0.i64(ptr align 4 %75, ptr align 4 %77, i64 %81, i1 false)
  %82 = load i32, ptr @history_len, align 4, !tbaa !4
  %83 = add nsw i32 %82, -1
  store i32 %83, ptr @history_len, align 4, !tbaa !4
  br label %84

84:                                               ; preds = %64, %60
  %85 = load ptr, ptr %6, align 8, !tbaa !12
  %86 = load ptr, ptr @history, align 8, !tbaa !20
  %87 = load i32, ptr @history_len, align 4, !tbaa !4
  %88 = sext i32 %87 to i64
  %89 = getelementptr inbounds ptr, ptr %86, i64 %88
  store ptr %85, ptr %89, align 8, !tbaa !12
  %90 = load i32, ptr %5, align 4, !tbaa !4
  %91 = load ptr, ptr @history_sensitive, align 8, !tbaa !55
  %92 = load i32, ptr @history_len, align 4, !tbaa !4
  %93 = sext i32 %92 to i64
  %94 = getelementptr inbounds i32, ptr %91, i64 %93
  store i32 %90, ptr %94, align 4, !tbaa !4
  %95 = load i32, ptr @history_len, align 4, !tbaa !4
  %96 = add nsw i32 %95, 1
  store i32 %96, ptr @history_len, align 4, !tbaa !4
  store i32 1, ptr %3, align 4
  store i32 1, ptr %7, align 4
  br label %97

97:                                               ; preds = %84, %59, %53, %29, %21, %10
  call void @llvm.lifetime.end.p0(i64 8, ptr %6) #12
  %98 = load i32, ptr %3, align 4
  ret i32 %98
}