; Function Attrs: mustprogress nounwind willreturn uwtable
define dso_local range(i32 0, 2) i32 @linenoiseHistoryAdd(ptr noundef readonly captures(none) %0, i32 noundef %1) local_unnamed_addr #3 {
  %3 = load i32, ptr @history_max_len, align 4, !tbaa !4
  %4 = load ptr, ptr @history, align 8, !tbaa !40
  %5 = icmp eq ptr %4, null
  br i1 %5, label %6, label %16

6:                                                ; preds = %2
  %7 = zext nneg i32 %3 to i64
  %8 = shl nuw nsw i64 %7, 3
  %9 = tail call noalias ptr @malloc(i64 noundef %8) #26
  store ptr %9, ptr @history, align 8, !tbaa !40
  %10 = icmp eq ptr %9, null
  br i1 %10, label %43, label %11

11:                                               ; preds = %6
  %12 = shl nuw nsw i64 %7, 2
  %calloc = tail call ptr @calloc(i64 1, i64 %12)
  store ptr %calloc, ptr @history_sensitive, align 8, !tbaa !64
  %13 = icmp eq ptr %calloc, null
  br i1 %13, label %14, label %15

14:                                               ; preds = %11
  tail call void @free(ptr noundef nonnull %9) #24
  store ptr null, ptr @history, align 8, !tbaa !40
  br label %43

15:                                               ; preds = %11
  tail call void @llvm.memset.p0.i64(ptr nonnull align 8 %9, i8 0, i64 %8, i1 false)
  br label %16

16:                                               ; preds = %15, %2
  %17 = phi ptr [ %9, %15 ], [ %4, %2 ]
  %18 = load i32, ptr @history_len, align 4, !tbaa !4
  %.not = icmp eq i32 %18, 0
  br i1 %.not, label %25, label %19

19:                                               ; preds = %16
  %20 = sext i32 %18 to i64
  %21 = getelementptr ptr, ptr %17, i64 %20
  %22 = getelementptr i8, ptr %21, i64 -8
  %23 = load ptr, ptr %22, align 8, !tbaa !15
  %24 = tail call i32 @strcmp(ptr noundef nonnull dereferenceable(1) %23, ptr noundef nonnull dereferenceable(1) %0) #25
  %.not8 = icmp eq i32 %24, 0
  br i1 %.not8, label %43, label %25

25:                                               ; preds = %19, %16
  %26 = tail call noalias ptr @strdup(ptr noundef %0) #24
  %.not9 = icmp eq ptr %26, null
  br i1 %.not9, label %43, label %27

27:                                               ; preds = %25
  %28 = icmp eq i32 %18, %3
  %.pre = load ptr, ptr @history_sensitive, align 8, !tbaa !64
  br i1 %28, label %29, label %37

29:                                               ; preds = %27
  %30 = load ptr, ptr %17, align 8, !tbaa !15
  tail call void @free(ptr noundef %30) #24
  %31 = getelementptr inbounds nuw i8, ptr %17, i64 8
  %32 = add nsw i32 %3, -1
  %33 = zext nneg i32 %32 to i64
  %34 = shl nuw nsw i64 %33, 3
  tail call void @llvm.memmove.p0.p0.i64(ptr nonnull align 8 %17, ptr nonnull align 8 %31, i64 %34, i1 false)
  %35 = getelementptr inbounds nuw i8, ptr %.pre, i64 4
  %36 = shl nuw nsw i64 %33, 2
  tail call void @llvm.memmove.p0.p0.i64(ptr align 4 %.pre, ptr nonnull align 4 %35, i64 %36, i1 false)
  br label %37

37:                                               ; preds = %29, %27
  %38 = phi i32 [ %32, %29 ], [ %18, %27 ]
  %39 = sext i32 %38 to i64
  %40 = getelementptr inbounds ptr, ptr %17, i64 %39
  store ptr %26, ptr %40, align 8, !tbaa !15
  %41 = getelementptr inbounds i32, ptr %.pre, i64 %39
  store i32 %1, ptr %41, align 4, !tbaa !4
  %42 = add nsw i32 %38, 1
  store i32 %42, ptr @history_len, align 4, !tbaa !4
  br label %43

43:                                               ; preds = %25, %19, %6, %37, %14
  %.0 = phi i32 [ 0, %14 ], [ 1, %37 ], [ 0, %6 ], [ 0, %19 ], [ 0, %25 ]
  ret i32 %.0
}